; Function Attrs: mustprogress uwtable
define noundef i32 @_ZNK6icu_7513UnicodeString9doIndexOfEDsii(ptr noundef nonnull align 8 dereferenceable(64) %this, i16 noundef zeroext %c, i32 noundef %start, i32 noundef %length) local_unnamed_addr #5 align 2 {
entry:
  %fUnion.i.i.i = getelementptr inbounds i8, ptr %this, i64 8
  %0 = load i16, ptr %fUnion.i.i.i, align 8
  %cmp.i.i.i = icmp slt i16 %0, 0
  %1 = ashr i16 %0, 5
  %shr.i.i.i = sext i16 %1 to i32
  %fLength.i.i = getelementptr inbounds i8, ptr %this, i64 12
  %2 = load i32, ptr %fLength.i.i, align 4
  %cond.i.i = select i1 %cmp.i.i.i, i32 %2, i32 %shr.i.i.i
  %cmp.i = icmp slt i32 %start, 0
  %spec.select = tail call i32 @llvm.smin.i32(i32 %cond.i.i, i32 %start)
  %start.addr.0 = select i1 %cmp.i, i32 0, i32 %spec.select
  %cmp5.i = icmp slt i32 %length, 0
  %sub.i = sub nsw i32 %cond.i.i, %start.addr.0
  %spec.select6 = tail call i32 @llvm.smin.i32(i32 %sub.i, i32 %length)
  %length.addr.0 = select i1 %cmp5.i, i32 0, i32 %spec.select6
  %3 = and i16 %0, 2
  %tobool.not.i = icmp eq i16 %3, 0
  %fBuffer.i = getelementptr inbounds i8, ptr %this, i64 10
  %fArray.i = getelementptr inbounds i8, ptr %this, i64 24
  %4 = load ptr, ptr %fArray.i, align 8
  %cond.i = select i1 %tobool.not.i, ptr %4, ptr %fBuffer.i
  %idx.ext = sext i32 %start.addr.0 to i64
  %add.ptr = getelementptr inbounds i16, ptr %cond.i, i64 %idx.ext
  %call2 = tail call ptr @u_memchr_75(ptr noundef %add.ptr, i16 noundef zeroext %c, i32 noundef %length.addr.0)
  %cmp = icmp eq ptr %call2, null
  %sub.ptr.lhs.cast = ptrtoint ptr %call2 to i64
  %sub.ptr.rhs.cast = ptrtoint ptr %cond.i to i64
  %sub.ptr.sub = sub i64 %sub.ptr.lhs.cast, %sub.ptr.rhs.cast
  %sub.ptr.div = lshr exact i64 %sub.ptr.sub, 1
  %conv = trunc i64 %sub.ptr.div to i32
  %retval.0 = select i1 %cmp, i32 -1, i32 %conv
  ret i32 %retval.0
}